
./logs/test.elf:     file format elf32-littleriscv


Disassembly of section .text.init:

80000000 <_start>:
80000000:	00006117          	auipc	sp,0x6
80000004:	00010113          	mv	sp,sp
80000008:	0e8000ef          	jal	800000f0 <trap_setup>
8000000c:	00000f97          	auipc	t6,0x0
80000010:	024f8f93          	addi	t6,t6,36 # 80000030 <m_trap_vector>
80000014:	305f9073          	csrw	mtvec,t6
80000018:	00000f97          	auipc	t6,0x0
8000001c:	0b8f8f93          	addi	t6,t6,184 # 800000d0 <s_mode_handler>
80000020:	105f9073          	csrw	stvec,t6
80000024:	00000f17          	auipc	t5,0x0
80000028:	44cf0f13          	addi	t5,t5,1100 # 80000470 <begin_signature>
8000002c:	0d00006f          	j	800000fc <main>

80000030 <m_trap_vector>:
80000030:	f8010113          	addi	sp,sp,-128 # 80005f80 <_end+0x3f80>
80000034:	00112223          	sw	ra,4(sp)
80000038:	00212423          	sw	sp,8(sp)
8000003c:	00312623          	sw	gp,12(sp)
80000040:	00412823          	sw	tp,16(sp)
80000044:	00512a23          	sw	t0,20(sp)
80000048:	00612c23          	sw	t1,24(sp)
8000004c:	00712e23          	sw	t2,28(sp)
80000050:	02812023          	sw	s0,32(sp)
80000054:	02912223          	sw	s1,36(sp)
80000058:	02a12423          	sw	a0,40(sp)
8000005c:	02b12623          	sw	a1,44(sp)
80000060:	02c12823          	sw	a2,48(sp)
80000064:	02d12a23          	sw	a3,52(sp)
80000068:	02e12c23          	sw	a4,56(sp)
8000006c:	02f12e23          	sw	a5,60(sp)
80000070:	05012023          	sw	a6,64(sp)
80000074:	05112223          	sw	a7,68(sp)
80000078:	05212423          	sw	s2,72(sp)
8000007c:	05312623          	sw	s3,76(sp)
80000080:	05412823          	sw	s4,80(sp)
80000084:	05512a23          	sw	s5,84(sp)
80000088:	05612c23          	sw	s6,88(sp)
8000008c:	05712e23          	sw	s7,92(sp)
80000090:	07812023          	sw	s8,96(sp)
80000094:	07912223          	sw	s9,100(sp)
80000098:	07a12423          	sw	s10,104(sp)
8000009c:	07b12623          	sw	s11,108(sp)
800000a0:	07c12823          	sw	t3,112(sp)
800000a4:	07d12a23          	sw	t4,116(sp)
800000a8:	07e12c23          	sw	t5,120(sp)
800000ac:	07f12e23          	sw	t6,124(sp)
800000b0:	342022f3          	csrr	t0,mcause
800000b4:	00129293          	slli	t0,t0,0x1
800000b8:	0012d293          	srli	t0,t0,0x1
800000bc:	00800313          	li	t1,8
800000c0:	00900393          	li	t2,9
800000c4:	0e628063          	beq	t0,t1,800001a4 <u_trap_handler>
800000c8:	18728863          	beq	t0,t2,80000258 <s_trap_handler>
800000cc:	2400006f          	j	8000030c <unknown_trap>

800000d0 <s_mode_handler>:
800000d0:	142022f3          	csrr	t0,scause
800000d4:	00129293          	slli	t0,t0,0x1
800000d8:	0012d293          	srli	t0,t0,0x1
800000dc:	005f0223          	sb	t0,4(t5)
800000e0:	14102373          	csrr	t1,sepc
800000e4:	00430313          	addi	t1,t1,4
800000e8:	14131073          	csrw	sepc,t1
800000ec:	10200073          	sret

800000f0 <trap_setup>:
800000f0:	00400293          	li	t0,4
800000f4:	3022a073          	csrs	medeleg,t0
800000f8:	00008067          	ret

800000fc <main>:
800000fc:	00000013          	nop
80000100:	00100513          	li	a0,1
80000104:	054000ef          	jal	80000158 <switch_mode>
80000108:	ffffffff          	.word	0xffffffff
8000010c:	00000073          	ecall
80000110:	00000073          	ecall
80000114:	3480006f          	j	8000045c <write_tohost>

80000118 <verify_u_mode>:
80000118:	300022f3          	csrr	t0,mstatus
8000011c:	00008067          	ret

80000120 <verify_s_mode>:
80000120:	300022f3          	csrr	t0,mstatus
80000124:	00008067          	ret

80000128 <verify_m_mode>:
80000128:	300022f3          	csrr	t0,mstatus
8000012c:	00300313          	li	t1,3
80000130:	006f0023          	sb	t1,0(t5)
80000134:	00008067          	ret

80000138 <u_mode_switch>:
80000138:	00008313          	mv	t1,ra
8000013c:	14131073          	csrw	sepc,t1
80000140:	100022f3          	csrr	t0,sstatus
80000144:	00000393          	li	t2,0
80000148:	00839393          	slli	t2,t2,0x8
8000014c:	0072f2b3          	and	t0,t0,t2
80000150:	10029073          	csrw	sstatus,t0
80000154:	10200073          	sret

80000158 <switch_mode>:
80000158:	00008f93          	mv	t6,ra
8000015c:	300022f3          	csrr	t0,mstatus
80000160:	00300313          	li	t1,3
80000164:	00b31313          	slli	t1,t1,0xb
80000168:	fff34313          	not	t1,t1
8000016c:	0062f2b3          	and	t0,t0,t1
80000170:	00100e13          	li	t3,1
80000174:	00050663          	beqz	a0,80000180 <switch_mode+0x28>
80000178:	03c50063          	beq	a0,t3,80000198 <switch_mode+0x40>
8000017c:	2d40006f          	j	80000450 <fail>
80000180:	00100313          	li	t1,1
80000184:	00b31313          	slli	t1,t1,0xb
80000188:	0062e2b3          	or	t0,t0,t1
8000018c:	341f9073          	csrw	mepc,t6
80000190:	30029073          	csrw	mstatus,t0
80000194:	30200073          	mret
80000198:	341f9073          	csrw	mepc,t6
8000019c:	30029073          	csrw	mstatus,t0
800001a0:	30200073          	mret

800001a4 <u_trap_handler>:
800001a4:	341023f3          	csrr	t2,mepc
800001a8:	00438393          	addi	t2,t2,4
800001ac:	34139073          	csrw	mepc,t2
800001b0:	300022f3          	csrr	t0,mstatus
800001b4:	00300313          	li	t1,3
800001b8:	00b31313          	slli	t1,t1,0xb
800001bc:	fff34313          	not	t1,t1
800001c0:	0062f2b3          	and	t0,t0,t1
800001c4:	00100313          	li	t1,1
800001c8:	00b31313          	slli	t1,t1,0xb
800001cc:	0062e2b3          	or	t0,t0,t1
800001d0:	30029073          	csrw	mstatus,t0
800001d4:	00412083          	lw	ra,4(sp)
800001d8:	00812103          	lw	sp,8(sp)
800001dc:	00c12183          	lw	gp,12(sp)
800001e0:	01012203          	lw	tp,16(sp)
800001e4:	01412283          	lw	t0,20(sp)
800001e8:	01812303          	lw	t1,24(sp)
800001ec:	01c12383          	lw	t2,28(sp)
800001f0:	02012403          	lw	s0,32(sp)
800001f4:	02412483          	lw	s1,36(sp)
800001f8:	02812503          	lw	a0,40(sp)
800001fc:	02c12583          	lw	a1,44(sp)
80000200:	03012603          	lw	a2,48(sp)
80000204:	03412683          	lw	a3,52(sp)
80000208:	03812703          	lw	a4,56(sp)
8000020c:	03c12783          	lw	a5,60(sp)
80000210:	04012803          	lw	a6,64(sp)
80000214:	04412883          	lw	a7,68(sp)
80000218:	04812903          	lw	s2,72(sp)
8000021c:	04c12983          	lw	s3,76(sp)
80000220:	05012a03          	lw	s4,80(sp)
80000224:	05412a83          	lw	s5,84(sp)
80000228:	05812b03          	lw	s6,88(sp)
8000022c:	05c12b83          	lw	s7,92(sp)
80000230:	06012c03          	lw	s8,96(sp)
80000234:	06412c83          	lw	s9,100(sp)
80000238:	06812d03          	lw	s10,104(sp)
8000023c:	06c12d83          	lw	s11,108(sp)
80000240:	07012e03          	lw	t3,112(sp)
80000244:	07412e83          	lw	t4,116(sp)
80000248:	07812f03          	lw	t5,120(sp)
8000024c:	07c12f83          	lw	t6,124(sp)
80000250:	08010113          	addi	sp,sp,128
80000254:	30200073          	mret

80000258 <s_trap_handler>:
80000258:	341023f3          	csrr	t2,mepc
8000025c:	00438393          	addi	t2,t2,4
80000260:	34139073          	csrw	mepc,t2
80000264:	300022f3          	csrr	t0,mstatus
80000268:	00300313          	li	t1,3
8000026c:	00b31313          	slli	t1,t1,0xb
80000270:	fff34313          	not	t1,t1
80000274:	0062f2b3          	and	t0,t0,t1
80000278:	00300313          	li	t1,3
8000027c:	00b31313          	slli	t1,t1,0xb
80000280:	0062e2b3          	or	t0,t0,t1
80000284:	30029073          	csrw	mstatus,t0
80000288:	00412083          	lw	ra,4(sp)
8000028c:	00812103          	lw	sp,8(sp)
80000290:	00c12183          	lw	gp,12(sp)
80000294:	01012203          	lw	tp,16(sp)
80000298:	01412283          	lw	t0,20(sp)
8000029c:	01812303          	lw	t1,24(sp)
800002a0:	01c12383          	lw	t2,28(sp)
800002a4:	02012403          	lw	s0,32(sp)
800002a8:	02412483          	lw	s1,36(sp)
800002ac:	02812503          	lw	a0,40(sp)
800002b0:	02c12583          	lw	a1,44(sp)
800002b4:	03012603          	lw	a2,48(sp)
800002b8:	03412683          	lw	a3,52(sp)
800002bc:	03812703          	lw	a4,56(sp)
800002c0:	03c12783          	lw	a5,60(sp)
800002c4:	04012803          	lw	a6,64(sp)
800002c8:	04412883          	lw	a7,68(sp)
800002cc:	04812903          	lw	s2,72(sp)
800002d0:	04c12983          	lw	s3,76(sp)
800002d4:	05012a03          	lw	s4,80(sp)
800002d8:	05412a83          	lw	s5,84(sp)
800002dc:	05812b03          	lw	s6,88(sp)
800002e0:	05c12b83          	lw	s7,92(sp)
800002e4:	06012c03          	lw	s8,96(sp)
800002e8:	06412c83          	lw	s9,100(sp)
800002ec:	06812d03          	lw	s10,104(sp)
800002f0:	06c12d83          	lw	s11,108(sp)
800002f4:	07012e03          	lw	t3,112(sp)
800002f8:	07412e83          	lw	t4,116(sp)
800002fc:	07812f03          	lw	t5,120(sp)
80000300:	07c12f83          	lw	t6,124(sp)
80000304:	08010113          	addi	sp,sp,128
80000308:	30200073          	mret

8000030c <unknown_trap>:
8000030c:	02812283          	lw	t0,40(sp)
80000310:	00300313          	li	t1,3
80000314:	12534e63          	blt	t1,t0,80000450 <fail>
80000318:	341023f3          	csrr	t2,mepc
8000031c:	00438393          	addi	t2,t2,4
80000320:	34139073          	csrw	mepc,t2
80000324:	300022f3          	csrr	t0,mstatus
80000328:	00b2d293          	srli	t0,t0,0xb
8000032c:	00300313          	li	t1,3
80000330:	0062f333          	and	t1,t0,t1
80000334:	00030663          	beqz	t1,80000340 <U>
80000338:	00100e13          	li	t3,1
8000033c:	09c30663          	beq	t1,t3,800003c8 <S>

80000340 <U>:
80000340:	005f0123          	sb	t0,2(t5)
80000344:	00412083          	lw	ra,4(sp)
80000348:	00812103          	lw	sp,8(sp)
8000034c:	00c12183          	lw	gp,12(sp)
80000350:	01012203          	lw	tp,16(sp)
80000354:	01412283          	lw	t0,20(sp)
80000358:	01812303          	lw	t1,24(sp)
8000035c:	01c12383          	lw	t2,28(sp)
80000360:	02012403          	lw	s0,32(sp)
80000364:	02412483          	lw	s1,36(sp)
80000368:	02812503          	lw	a0,40(sp)
8000036c:	02c12583          	lw	a1,44(sp)
80000370:	03012603          	lw	a2,48(sp)
80000374:	03412683          	lw	a3,52(sp)
80000378:	03812703          	lw	a4,56(sp)
8000037c:	03c12783          	lw	a5,60(sp)
80000380:	04012803          	lw	a6,64(sp)
80000384:	04412883          	lw	a7,68(sp)
80000388:	04812903          	lw	s2,72(sp)
8000038c:	04c12983          	lw	s3,76(sp)
80000390:	05012a03          	lw	s4,80(sp)
80000394:	05412a83          	lw	s5,84(sp)
80000398:	05812b03          	lw	s6,88(sp)
8000039c:	05c12b83          	lw	s7,92(sp)
800003a0:	06012c03          	lw	s8,96(sp)
800003a4:	06412c83          	lw	s9,100(sp)
800003a8:	06812d03          	lw	s10,104(sp)
800003ac:	06c12d83          	lw	s11,108(sp)
800003b0:	07012e03          	lw	t3,112(sp)
800003b4:	07412e83          	lw	t4,116(sp)
800003b8:	07812f03          	lw	t5,120(sp)
800003bc:	07c12f83          	lw	t6,124(sp)
800003c0:	08010113          	addi	sp,sp,128
800003c4:	30200073          	mret

800003c8 <S>:
800003c8:	005f00a3          	sb	t0,1(t5)
800003cc:	00412083          	lw	ra,4(sp)
800003d0:	00812103          	lw	sp,8(sp)
800003d4:	00c12183          	lw	gp,12(sp)
800003d8:	01012203          	lw	tp,16(sp)
800003dc:	01412283          	lw	t0,20(sp)
800003e0:	01812303          	lw	t1,24(sp)
800003e4:	01c12383          	lw	t2,28(sp)
800003e8:	02012403          	lw	s0,32(sp)
800003ec:	02412483          	lw	s1,36(sp)
800003f0:	02812503          	lw	a0,40(sp)
800003f4:	02c12583          	lw	a1,44(sp)
800003f8:	03012603          	lw	a2,48(sp)
800003fc:	03412683          	lw	a3,52(sp)
80000400:	03812703          	lw	a4,56(sp)
80000404:	03c12783          	lw	a5,60(sp)
80000408:	04012803          	lw	a6,64(sp)
8000040c:	04412883          	lw	a7,68(sp)
80000410:	04812903          	lw	s2,72(sp)
80000414:	04c12983          	lw	s3,76(sp)
80000418:	05012a03          	lw	s4,80(sp)
8000041c:	05412a83          	lw	s5,84(sp)
80000420:	05812b03          	lw	s6,88(sp)
80000424:	05c12b83          	lw	s7,92(sp)
80000428:	06012c03          	lw	s8,96(sp)
8000042c:	06412c83          	lw	s9,100(sp)
80000430:	06812d03          	lw	s10,104(sp)
80000434:	06c12d83          	lw	s11,108(sp)
80000438:	07012e03          	lw	t3,112(sp)
8000043c:	07412e83          	lw	t4,116(sp)
80000440:	07812f03          	lw	t5,120(sp)
80000444:	07c12f83          	lw	t6,124(sp)
80000448:	08010113          	addi	sp,sp,128
8000044c:	30200073          	mret

80000450 <fail>:
80000450:	003f0283          	lb	t0,3(t5)
80000454:	0ff28293          	addi	t0,t0,255
80000458:	005f01a3          	sb	t0,3(t5)

8000045c <write_tohost>:
8000045c:	00100193          	li	gp,1
80000460:	00001297          	auipc	t0,0x1
80000464:	ba028293          	addi	t0,t0,-1120 # 80001000 <tohost>
80000468:	0032a023          	sw	gp,0(t0)
8000046c:	ff1ff06f          	j	8000045c <write_tohost>

80000470 <begin_signature>:
80000470:	00000000          	.word	0x00000000
	...

80000475 <end_signature>:
80000475:	00                	.byte	0x00
80000476:	0001                	.insn	2, 0x0001
80000478:	00000013          	nop
8000047c:	00000013          	nop
